	.file	"in_string.c"
 # GNU C17 (Rev4, Built by MSYS2 project) version 10.2.0 (x86_64-w64-mingw32)
 #	compiled by GNU C version 10.2.0, GMP version 6.2.0, MPFR version 4.1.0, MPC version 1.2.0, isl version isl-0.22.1-GMP

 # GGC heuristics: --param ggc-min-expand=100 --param ggc-min-heapsize=131072
 # options passed: 
 # -iprefix C:/msys64/mingw64/bin/../lib/gcc/x86_64-w64-mingw32/10.2.0/
 # -D_REENTRANT in_string.c -mtune=generic -march=x86-64 -g -Wall -Wextra
 # -fno-asynchronous-unwind-tables -fno-exceptions -fno-rtti -fverbose-asm
 # options enabled:  -faggressive-loop-optimizations -fallocation-dce
 # -fauto-inc-dec -fdelete-null-pointer-checks -fdwarf2-cfi-asm
 # -fearly-inlining -feliminate-unused-debug-symbols
 # -feliminate-unused-debug-types -ffp-int-builtin-inexact -ffunction-cse
 # -fgcse-lm -fgnu-unique -fident -finline-atomics -fipa-stack-alignment
 # -fira-hoist-pressure -fira-share-save-slots -fira-share-spill-slots
 # -fivopts -fkeep-inline-dllexport -fkeep-static-consts
 # -fleading-underscore -flifetime-dse -fmath-errno -fmerge-debug-strings
 # -fpeephole -fpic -fplt -fprefetch-loop-arrays -freg-struct-return
 # -fsched-critical-path-heuristic -fsched-dep-count-heuristic
 # -fsched-group-heuristic -fsched-interblock -fsched-last-insn-heuristic
 # -fsched-rank-heuristic -fsched-spec -fsched-spec-insn-heuristic
 # -fsched-stalled-insns-dep -fschedule-fusion -fsemantic-interposition
 # -fset-stack-executable -fshow-column -fshrink-wrap-separate
 # -fsigned-zeros -fsplit-ivs-in-unroller -fssa-backprop -fstdarg-opt
 # -fstrict-volatile-bitfields -fsync-libcalls -ftrapping-math
 # -ftree-cselim -ftree-forwprop -ftree-loop-if-convert -ftree-loop-im
 # -ftree-loop-ivcanon -ftree-loop-optimize -ftree-parallelize-loops=
 # -ftree-phiprop -ftree-reassoc -ftree-scev-cprop -funit-at-a-time
 # -fverbose-asm -fzero-initialized-in-bss -m128bit-long-double -m64
 # -m80387 -maccumulate-outgoing-args -malign-double -malign-stringops
 # -mavx256-split-unaligned-load -mavx256-split-unaligned-store
 # -mfancy-math-387 -mfp-ret-in-387 -mfxsr -mieee-fp -mlong-double-80 -mmmx
 # -mms-bitfields -mno-sse4 -mpush-args -mred-zone -msse -msse2
 # -mstack-arg-probe -mstackrealign -mvzeroupper

	.text
.Ltext0:
	.cfi_sections	.debug_frame
	.def	__main;	.scl	2;	.type	32;	.endef
	.section .rdata,"dr"
.LC0:
	.ascii "Type a string:>\0"
	.text
	.globl	main
	.def	main;	.scl	2;	.type	32;	.endef
main:
.LFB4419:
	.file 1 "in_string.c"
	.loc 1 4 1
	.cfi_startproc
	pushq	%rbp	 #
	.cfi_def_cfa_offset 16
	.cfi_offset 6, -16
	movq	%rsp, %rbp	 #,
	.cfi_def_cfa_register 6
	pushq	%rdi	 #
	subq	$1144, %rsp	 #,
	.cfi_offset 5, -24
	movl	%ecx, 16(%rbp)	 # argc, argc
	movq	%rdx, 24(%rbp)	 # argv, argv
 # in_string.c:4: {
	.loc 1 4 1
	call	__main	 #
 # in_string.c:6:     HANDLE hOut = GetStdHandle(STD_OUTPUT_HANDLE);
	.loc 1 6 19
	movl	$-11, %ecx	 #,
	movq	__imp_GetStdHandle(%rip), %rax	 #, tmp85
	call	*%rax	 # tmp85
.LVL0:
	movq	%rax, -24(%rbp)	 # tmp86, hOut
 # in_string.c:7:     HANDLE hIn = GetStdHandle(STD_INPUT_HANDLE);
	.loc 1 7 18
	movl	$-10, %ecx	 #,
	movq	__imp_GetStdHandle(%rip), %rax	 #, tmp87
	call	*%rax	 # tmp87
.LVL1:
	movq	%rax, -32(%rbp)	 # tmp88, hIn
 # in_string.c:9:     char *szMsg = "Type a string:>";
	.loc 1 9 11
	leaq	.LC0(%rip), %rax	 #, tmp89
	movq	%rax, -40(%rbp)	 # tmp89, szMsg
 # in_string.c:10:     DWORD dwMsgLen = 15;
	.loc 1 10 11
	movl	$15, -44(%rbp)	 #, dwMsgLen
 # in_string.c:13:     WriteConsoleA(hOut, szMsg, dwMsgLen, &dwWritten, NULL);
	.loc 1 13 5
	leaq	-52(%rbp), %r8	 #, tmp90
	movl	-44(%rbp), %ecx	 # dwMsgLen, tmp91
	movq	-40(%rbp), %rdx	 # szMsg, tmp92
	movq	-24(%rbp), %rax	 # hOut, tmp93
	movq	$0, 32(%rsp)	 #,
	movq	%r8, %r9	 # tmp90,
	movl	%ecx, %r8d	 # tmp91,
	movq	%rax, %rcx	 # tmp93,
	movq	__imp_WriteConsoleA(%rip), %rax	 #, tmp94
	call	*%rax	 # tmp94
.LVL2:
 # in_string.c:15:     char buffer[1024] = { 0 };
	.loc 1 15 10
	movq	$0, -1088(%rbp)	 #, buffer
	movq	$0, -1080(%rbp)	 #, buffer
	leaq	-1072(%rbp), %rdx	 #, tmp95
	movl	$0, %eax	 #, tmp96
	movl	$126, %ecx	 #, tmp97
	movq	%rdx, %rdi	 # tmp95, tmp95
	rep stosq
 # in_string.c:16:     DWORD nNumberOfBytesToRead = 1024;
	.loc 1 16 11
	movl	$1024, -48(%rbp)	 #, nNumberOfBytesToRead
 # in_string.c:17:     DWORD dwNumberOfBytesRead = 0;
	.loc 1 17 11
	movl	$0, -1092(%rbp)	 #, dwNumberOfBytesRead
 # in_string.c:19:     ReadFile(hIn, buffer, nNumberOfBytesToRead, &dwNumberOfBytesRead, NULL);
	.loc 1 19 5
	leaq	-1092(%rbp), %r8	 #, tmp98
	movl	-48(%rbp), %ecx	 # nNumberOfBytesToRead, tmp99
	leaq	-1088(%rbp), %rdx	 #, tmp100
	movq	-32(%rbp), %rax	 # hIn, tmp101
	movq	$0, 32(%rsp)	 #,
	movq	%r8, %r9	 # tmp98,
	movl	%ecx, %r8d	 # tmp99,
	movq	%rax, %rcx	 # tmp101,
	movq	__imp_ReadFile(%rip), %rax	 #, tmp102
	call	*%rax	 # tmp102
.LVL3:
 # in_string.c:21:     WriteConsoleA(hOut, buffer, dwNumberOfBytesRead, &dwWritten, NULL);
	.loc 1 21 5
	movl	-1092(%rbp), %ecx	 # dwNumberOfBytesRead, dwNumberOfBytesRead.0_1
	leaq	-52(%rbp), %r8	 #, tmp103
	leaq	-1088(%rbp), %rdx	 #, tmp104
	movq	-24(%rbp), %rax	 # hOut, tmp105
	movq	$0, 32(%rsp)	 #,
	movq	%r8, %r9	 # tmp103,
	movl	%ecx, %r8d	 # dwNumberOfBytesRead.0_1,
	movq	%rax, %rcx	 # tmp105,
	movq	__imp_WriteConsoleA(%rip), %rax	 #, tmp106
	call	*%rax	 # tmp106
.LVL4:
 # in_string.c:23:     CloseHandle(hOut);
	.loc 1 23 5
	movq	-24(%rbp), %rax	 # hOut, tmp107
	movq	%rax, %rcx	 # tmp107,
	movq	__imp_CloseHandle(%rip), %rax	 #, tmp108
	call	*%rax	 # tmp108
.LVL5:
 # in_string.c:24:     CloseHandle(hIn);
	.loc 1 24 5
	movq	-32(%rbp), %rax	 # hIn, tmp109
	movq	%rax, %rcx	 # tmp109,
	movq	__imp_CloseHandle(%rip), %rax	 #, tmp110
	call	*%rax	 # tmp110
.LVL6:
 # in_string.c:26:     return 0;
	.loc 1 26 12
	movl	$0, %eax	 #, _17
 # in_string.c:27: }
	.loc 1 27 1
	movq	-8(%rbp), %rdi	 #,
	leave	
	.cfi_restore 6
	.cfi_restore 5
	.cfi_def_cfa 7, 8
	ret	
	.cfi_endproc
.LFE4419:
.Letext0:
	.file 2 "C:/msys64/mingw64/x86_64-w64-mingw32/include/minwindef.h"
	.file 3 "C:/msys64/mingw64/x86_64-w64-mingw32/include/winnt.h"
	.file 4 "C:/msys64/mingw64/x86_64-w64-mingw32/include/processenv.h"
	.file 5 "C:/msys64/mingw64/x86_64-w64-mingw32/include/wincon.h"
	.file 6 "C:/msys64/mingw64/x86_64-w64-mingw32/include/fileapi.h"
	.file 7 "C:/msys64/mingw64/x86_64-w64-mingw32/include/handleapi.h"