	.file	"writeconsole.c"
	.text
.Ltext0:
	.cfi_sections	.debug_frame
	.def	__main;	.scl	2;	.type	32;	.endef
	.section .rdata,"dr"
.LC0:
	.ascii "Hello, Console!\0"
	.text
	.globl	main
	.def	main;	.scl	2;	.type	32;	.endef
	.seh_proc	main
main:
.LFB4419:
	.file 1 "writeconsole.c"
	.loc 1 4 1
	.cfi_startproc
	pushq	%rbp
	.seh_pushreg	%rbp
	.cfi_def_cfa_offset 16
	.cfi_offset 6, -16
	movq	%rsp, %rbp
	.seh_setframe	%rbp, 0
	.cfi_def_cfa_register 6
	subq	$80, %rsp
	.seh_stackalloc	80
	.seh_endprologue
	movl	%ecx, 16(%rbp)
	movq	%rdx, 24(%rbp)
	.loc 1 4 1
	call	__main
	.loc 1 5 11
	leaq	.LC0(%rip), %rax
	movq	%rax, -8(%rbp)
	.loc 1 6 11
	movl	$15, -12(%rbp)
	.loc 1 9 19
	movl	$-11, %ecx
	movq	__imp_GetStdHandle(%rip), %rax
	call	*%rax
.LVL0:
	movq	%rax, -24(%rbp)
	.loc 1 10 5
	leaq	-28(%rbp), %r8
	movl	-12(%rbp), %ecx
	movq	-8(%rbp), %rdx
	movq	-24(%rbp), %rax
	movq	$0, 32(%rsp)
	movq	%r8, %r9
	movl	%ecx, %r8d
	movq	%rax, %rcx
	movq	__imp_WriteConsoleA(%rip), %rax
	call	*%rax
.LVL1:
	.loc 1 11 5
	movq	-24(%rbp), %rax
	movq	%rax, %rcx
	movq	__imp_CloseHandle(%rip), %rax
	call	*%rax
.LVL2:
	.loc 1 13 12
	movl	$0, %eax
	.loc 1 14 1
	addq	$80, %rsp
	popq	%rbp
	.cfi_restore 6
	.cfi_def_cfa 7, 8
	ret
	.cfi_endproc
.LFE4419:
	.seh_endproc
.Letext0:
	.file 2 "C:/msys64/mingw64/x86_64-w64-mingw32/include/minwindef.h"
	.file 3 "C:/msys64/mingw64/x86_64-w64-mingw32/include/winnt.h"
	.file 4 "C:/msys64/mingw64/x86_64-w64-mingw32/include/processenv.h"
	.file 5 "C:/msys64/mingw64/x86_64-w64-mingw32/include/wincon.h"
	.file 6 "C:/msys64/mingw64/x86_64-w64-mingw32/include/handleapi.h"